target datalayout = "e-m:e-p270:32:32-p271:32:32-p272:64:64-i64:64-i128:128-f80:128-n8:16:32:64-S128"
target triple = "x86_64-pc-linux-gnu"

%"class.rocksdb::CompactOnDeletionCollector" = type <{ %"class.rocksdb::TablePropertiesCollector", [128 x i64], i64, i64, i64, i64, i64, double, i8, [7 x i8], i64, i64, i8, i8, [6 x i8] }>
%"class.rocksdb::TablePropertiesCollector" = type { ptr }
%"class.rocksdb::Status" = type { i8, i8, i8, i8, i8, i8, %"class.std::unique_ptr" }
%"class.std::unique_ptr" = type { %"struct.std::__uniq_ptr_data" }
%"struct.std::__uniq_ptr_data" = type { %"class.std::__uniq_ptr_impl" }
%"class.std::__uniq_ptr_impl" = type { %"class.std::tuple" }
%"class.std::tuple" = type { %"struct.std::_Tuple_impl" }
%"struct.std::_Tuple_impl" = type { %"struct.std::_Head_base.1" }
%"struct.std::_Head_base.1" = type { ptr }

; Function Attrs: mustprogress nounwind uwtable
define linkonce_odr void @_ZNSt10_Head_baseILm1ESt14default_deleteIA_KcELb1EEC2Ev(ptr noundef nonnull align 1 dereferenceable(1) %0) unnamed_addr #0 comdat align 2 {
  %2 = alloca ptr, align 8
  store ptr %0, ptr %2, align 8, !tbaa !163
  ret void
}

; Function Attrs: mustprogress nounwind uwtable
define linkonce_odr void @_ZNSt10_Head_baseILm0EPKcLb0EEC2Ev(ptr noundef nonnull align 8 dereferenceable(8) %0) unnamed_addr #0 comdat align 2 {
  %2 = alloca ptr, align 8
  store ptr %0, ptr %2, align 8, !tbaa !160
  %3 = load ptr, ptr %2, align 8
  %4 = getelementptr inbounds nuw %"struct.std::_Head_base.1", ptr %3, i32 0, i32 0
  store ptr null, ptr %4, align 8, !tbaa !162
  ret void
}

; Function Attrs: mustprogress uwtable
define linkonce_odr void @_ZNSt11_Tuple_implILm1EJSt14default_deleteIA_KcEEEC2Ev(ptr noundef nonnull align 1 dereferenceable(1) %0) unnamed_addr #3 comdat align 2 {
  %2 = alloca ptr, align 8
  store ptr %0, ptr %2, align 8, !tbaa !158
  %3 = load ptr, ptr %2, align 8
  call void @_ZNSt10_Head_baseILm1ESt14default_deleteIA_KcELb1EEC2Ev(ptr noundef nonnull align 1 dereferenceable(1) %3)
  ret void
}

; Function Attrs: noinline noreturn nounwind uwtable
define linkonce_odr hidden void @__clang_call_terminate(ptr noundef %0) #13 comdat {
  %2 = call ptr @__cxa_begin_catch(ptr %0) #6
  call void @_ZSt9terminatev() #24
  unreachable
}

; Function Attrs: mustprogress uwtable
define linkonce_odr void @_ZNSt11_Tuple_implILm0EJPKcSt14default_deleteIA_S0_EEEC2Ev(ptr noundef nonnull align 8 dereferenceable(8) %0) unnamed_addr #3 comdat align 2 {
  %2 = alloca ptr, align 8
  store ptr %0, ptr %2, align 8, !tbaa !156
  %3 = load ptr, ptr %2, align 8
  call void @_ZNSt11_Tuple_implILm1EJSt14default_deleteIA_KcEEEC2Ev(ptr noundef nonnull align 1 dereferenceable(1) %3)
  call void @_ZNSt10_Head_baseILm0EPKcLb0EEC2Ev(ptr noundef nonnull align 8 dereferenceable(8) %3)
  ret void
}

; Function Attrs: mustprogress nounwind uwtable
define linkonce_odr void @_ZNSt5tupleIJPKcSt14default_deleteIA_S0_EEEC2ILb1ETnNSt9enable_ifIXclsr17_TupleConstraintsIXT_ES1_S4_EE37__is_implicitly_default_constructibleEEbE4typeELb1EEEv(ptr noundef nonnull align 8 dereferenceable(8) %0) unnamed_addr #0 comdat align 2 personality ptr @__gxx_personality_v0 {
  %2 = alloca ptr, align 8
  store ptr %0, ptr %2, align 8, !tbaa !154
  %3 = load ptr, ptr %2, align 8
  invoke void @_ZNSt11_Tuple_implILm0EJPKcSt14default_deleteIA_S0_EEEC2Ev(ptr noundef nonnull align 8 dereferenceable(8) %3)
          to label %4 unwind label %5

4:                                                ; preds = %1
  ret void

5:                                                ; preds = %1
  %6 = landingpad { ptr, i32 }
          catch ptr null
  %7 = extractvalue { ptr, i32 } %6, 0
  call void @__clang_call_terminate(ptr %7) #24
  unreachable
}

; Function Attrs: mustprogress nounwind uwtable
define linkonce_odr void @_ZNSt15__uniq_ptr_implIKcSt14default_deleteIA_S0_EEC2Ev(ptr noundef nonnull align 8 dereferenceable(8) %0) unnamed_addr #0 comdat align 2 {
  %2 = alloca ptr, align 8
  store ptr %0, ptr %2, align 8, !tbaa !152
  %3 = load ptr, ptr %2, align 8
  %4 = getelementptr inbounds nuw %"class.std::__uniq_ptr_impl", ptr %3, i32 0, i32 0
  call void @_ZNSt5tupleIJPKcSt14default_deleteIA_S0_EEEC2ILb1ETnNSt9enable_ifIXclsr17_TupleConstraintsIXT_ES1_S4_EE37__is_implicitly_default_constructibleEEbE4typeELb1EEEv(ptr noundef nonnull align 8 dereferenceable(8) %4) #6
  ret void
}

; Function Attrs: inlinehint mustprogress nounwind uwtable
define linkonce_odr void @_ZNSt15__uniq_ptr_dataIKcSt14default_deleteIA_S0_ELb1ELb1EEC2Ev(ptr noundef nonnull align 8 dereferenceable(8) %0) unnamed_addr #1 comdat align 2 {
  %2 = alloca ptr, align 8
  store ptr %0, ptr %2, align 8, !tbaa !150
  %3 = load ptr, ptr %2, align 8
  call void @_ZNSt15__uniq_ptr_implIKcSt14default_deleteIA_S0_EEC2Ev(ptr noundef nonnull align 8 dereferenceable(8) %3) #6
  ret void
}

; Function Attrs: mustprogress nounwind uwtable
define linkonce_odr void @_ZNSt10unique_ptrIA_KcSt14default_deleteIS1_EEC2IS3_vEEDn(ptr noundef nonnull align 8 dereferenceable(8) %0, ptr %1) unnamed_addr #0 comdat align 2 {
  %3 = alloca ptr, align 8
  %4 = alloca ptr, align 8
  store ptr %0, ptr %3, align 8, !tbaa !148
  store ptr %1, ptr %4, align 8, !tbaa !64
  %5 = load ptr, ptr %3, align 8
  %6 = getelementptr inbounds nuw %"class.std::unique_ptr", ptr %5, i32 0, i32 0
  call void @llvm.memset.p0.i64(ptr align 8 %6, i8 0, i64 8, i1 false)
  call void @_ZNSt15__uniq_ptr_dataIKcSt14default_deleteIA_S0_ELb1ELb1EEC2Ev(ptr noundef nonnull align 8 dereferenceable(8) %6) #6
  ret void
}

; Function Attrs: mustprogress nounwind uwtable
define linkonce_odr void @_ZN7rocksdb6StatusC2Ev(ptr noundef nonnull align 8 dereferenceable(16) %0) unnamed_addr #0 comdat align 2 {
  %2 = alloca ptr, align 8
  store ptr %0, ptr %2, align 8, !tbaa !130
  %3 = load ptr, ptr %2, align 8
  %4 = getelementptr inbounds nuw %"class.rocksdb::Status", ptr %3, i32 0, i32 0
  store i8 0, ptr %4, align 8, !tbaa !132
  %5 = getelementptr inbounds nuw %"class.rocksdb::Status", ptr %3, i32 0, i32 1
  store i8 0, ptr %5, align 1, !tbaa !143
  %6 = getelementptr inbounds nuw %"class.rocksdb::Status", ptr %3, i32 0, i32 2
  store i8 0, ptr %6, align 2, !tbaa !144
  %7 = getelementptr inbounds nuw %"class.rocksdb::Status", ptr %3, i32 0, i32 3
  store i8 0, ptr %7, align 1, !tbaa !145
  %8 = getelementptr inbounds nuw %"class.rocksdb::Status", ptr %3, i32 0, i32 4
  store i8 0, ptr %8, align 4, !tbaa !146
  %9 = getelementptr inbounds nuw %"class.rocksdb::Status", ptr %3, i32 0, i32 5
  store i8 0, ptr %9, align 1, !tbaa !147
  %10 = getelementptr inbounds nuw %"class.rocksdb::Status", ptr %3, i32 0, i32 6
  call void @_ZNSt10unique_ptrIA_KcSt14default_deleteIS1_EEC2IS3_vEEDn(ptr noundef nonnull align 8 dereferenceable(8) %10, ptr null) #6
  ret void
}

; Function Attrs: mustprogress uwtable
define linkonce_odr void @_ZN7rocksdb6Status2OKEv(ptr dead_on_unwind noalias writable sret(%"class.rocksdb::Status") align 8 %0) #3 comdat align 2 {
  %2 = alloca ptr, align 8
  store ptr %0, ptr %2, align 8
  call void @_ZN7rocksdb6StatusC2Ev(ptr noundef nonnull align 8 dereferenceable(16) %0)
  ret void
}

; Function Attrs: mustprogress uwtable
define void @_ZN7rocksdb26CompactOnDeletionCollector10AddUserKeyERKNS_5SliceES3_NS_9EntryTypeEmm(ptr dead_on_unwind noalias writable sret(%"class.rocksdb::Status") align 8 %0, ptr noundef nonnull align 8 dereferenceable(1106) %1, ptr noundef nonnull align 8 dereferenceable(16) %2, ptr noundef nonnull align 8 dereferenceable(16) %3, i32 noundef %4, i64 noundef %5, i64 noundef %6) unnamed_addr #3 align 2 {
  %8 = alloca ptr, align 8
  %9 = alloca ptr, align 8
  %10 = alloca ptr, align 8
  %11 = alloca ptr, align 8
  %12 = alloca i32, align 4
  %13 = alloca i64, align 8
  %14 = alloca i64, align 8
  store ptr %0, ptr %8, align 8
  store ptr %1, ptr %9, align 8, !tbaa !4
  store ptr %2, ptr %10, align 8, !tbaa !31
  store ptr %3, ptr %11, align 8, !tbaa !31
  store i32 %4, ptr %12, align 4, !tbaa !33
  store i64 %5, ptr %13, align 8, !tbaa !9
  store i64 %6, ptr %14, align 8, !tbaa !9
  %15 = load ptr, ptr %9, align 8
  %16 = getelementptr inbounds nuw %"class.rocksdb::CompactOnDeletionCollector", ptr %15, i32 0, i32 2
  %17 = load i64, ptr %16, align 8, !tbaa !15
  %18 = icmp ne i64 %17, 0
  br i1 %18, label %24, label %19

19:                                               ; preds = %7
  %20 = getelementptr inbounds nuw %"class.rocksdb::CompactOnDeletionCollector", ptr %15, i32 0, i32 8
  %21 = load i8, ptr %20, align 8, !tbaa !24, !range !35, !noundef !36
  %22 = trunc i8 %21 to i1
  br i1 %22, label %24, label %23

23:                                               ; preds = %19
  call void @_ZN7rocksdb6Status2OKEv(ptr dead_on_unwind writable sret(%"class.rocksdb::Status") align 8 %0)
  br label %99

24:                                               ; preds = %19, %7
  %25 = getelementptr inbounds nuw %"class.rocksdb::CompactOnDeletionCollector", ptr %15, i32 0, i32 12
  %26 = load i8, ptr %25, align 8, !tbaa !27, !range !35, !noundef !36
  %27 = trunc i8 %26 to i1
  br i1 %27, label %28, label %29

28:                                               ; preds = %24
  call void @_ZN7rocksdb6Status2OKEv(ptr dead_on_unwind writable sret(%"class.rocksdb::Status") align 8 %0)
  br label %99

29:                                               ; preds = %24
  %30 = getelementptr inbounds nuw %"class.rocksdb::CompactOnDeletionCollector", ptr %15, i32 0, i32 8
  %31 = load i8, ptr %30, align 8, !tbaa !24, !range !35, !noundef !36
  %32 = trunc i8 %31 to i1
  br i1 %32, label %33, label %44

33:                                               ; preds = %29
  %34 = getelementptr inbounds nuw %"class.rocksdb::CompactOnDeletionCollector", ptr %15, i32 0, i32 10
  %35 = load i64, ptr %34, align 8, !tbaa !25
  %36 = add i64 %35, 1
  store i64 %36, ptr %34, align 8, !tbaa !25
  %37 = load i32, ptr %12, align 4, !tbaa !33
  %38 = icmp eq i32 %37, 1
  br i1 %38, label %39, label %43

39:                                               ; preds = %33
  %40 = getelementptr inbounds nuw %"class.rocksdb::CompactOnDeletionCollector", ptr %15, i32 0, i32 11
  %41 = load i64, ptr %40, align 8, !tbaa !26
  %42 = add i64 %41, 1
  store i64 %42, ptr %40, align 8, !tbaa !26
  br label %43

43:                                               ; preds = %39, %33
  br label %44

44:                                               ; preds = %43, %29
  %45 = getelementptr inbounds nuw %"class.rocksdb::CompactOnDeletionCollector", ptr %15, i32 0, i32 2
  %46 = load i64, ptr %45, align 8, !tbaa !15
  %47 = icmp ne i64 %46, 0
  br i1 %47, label %48, label %98

48:                                               ; preds = %44
  %49 = getelementptr inbounds nuw %"class.rocksdb::CompactOnDeletionCollector", ptr %15, i32 0, i32 4
  %50 = load i64, ptr %49, align 8, !tbaa !20
  %51 = getelementptr inbounds nuw %"class.rocksdb::CompactOnDeletionCollector", ptr %15, i32 0, i32 2
  %52 = load i64, ptr %51, align 8, !tbaa !15
  %53 = icmp eq i64 %50, %52
  br i1 %53, label %54, label %73

54:                                               ; preds = %48
  %55 = getelementptr inbounds nuw %"class.rocksdb::CompactOnDeletionCollector", ptr %15, i32 0, i32 3
  %56 = load i64, ptr %55, align 8, !tbaa !19
  %57 = add i64 %56, 1
  %58 = urem i64 %57, 128
  %59 = getelementptr inbounds nuw %"class.rocksdb::CompactOnDeletionCollector", ptr %15, i32 0, i32 3
  store i64 %58, ptr %59, align 8, !tbaa !19
  %60 = getelementptr inbounds nuw %"class.rocksdb::CompactOnDeletionCollector", ptr %15, i32 0, i32 1
  %61 = getelementptr inbounds nuw %"class.rocksdb::CompactOnDeletionCollector", ptr %15, i32 0, i32 3
  %62 = load i64, ptr %61, align 8, !tbaa !19
  %63 = getelementptr inbounds nuw [128 x i64], ptr %60, i64 0, i64 %62
  %64 = load i64, ptr %63, align 8, !tbaa !9
  %65 = getelementptr inbounds nuw %"class.rocksdb::CompactOnDeletionCollector", ptr %15, i32 0, i32 5
  %66 = load i64, ptr %65, align 8, !tbaa !21
  %67 = sub i64 %66, %64
  store i64 %67, ptr %65, align 8, !tbaa !21
  %68 = getelementptr inbounds nuw %"class.rocksdb::CompactOnDeletionCollector", ptr %15, i32 0, i32 1
  %69 = getelementptr inbounds nuw %"class.rocksdb::CompactOnDeletionCollector", ptr %15, i32 0, i32 3
  %70 = load i64, ptr %69, align 8, !tbaa !19
  %71 = getelementptr inbounds nuw [128 x i64], ptr %68, i64 0, i64 %70
  store i64 0, ptr %71, align 8, !tbaa !9
  %72 = getelementptr inbounds nuw %"class.rocksdb::CompactOnDeletionCollector", ptr %15, i32 0, i32 4
  store i64 0, ptr %72, align 8, !tbaa !20
  br label %73

73:                                               ; preds = %54, %48
  %74 = getelementptr inbounds nuw %"class.rocksdb::CompactOnDeletionCollector", ptr %15, i32 0, i32 4
  %75 = load i64, ptr %74, align 8, !tbaa !20
  %76 = add i64 %75, 1
  store i64 %76, ptr %74, align 8, !tbaa !20
  %77 = load i32, ptr %12, align 4, !tbaa !33
  %78 = icmp eq i32 %77, 1
  br i1 %78, label %79, label %97

79:                                               ; preds = %73
  %80 = getelementptr inbounds nuw %"class.rocksdb::CompactOnDeletionCollector", ptr %15, i32 0, i32 5
  %81 = load i64, ptr %80, align 8, !tbaa !21
  %82 = add i64 %81, 1
  store i64 %82, ptr %80, align 8, !tbaa !21
  %83 = getelementptr inbounds nuw %"class.rocksdb::CompactOnDeletionCollector", ptr %15, i32 0, i32 1
  %84 = getelementptr inbounds nuw %"class.rocksdb::CompactOnDeletionCollector", ptr %15, i32 0, i32 3
  %85 = load i64, ptr %84, align 8, !tbaa !19
  %86 = getelementptr inbounds nuw [128 x i64], ptr %83, i64 0, i64 %85
  %87 = load i64, ptr %86, align 8, !tbaa !9
  %88 = add i64 %87, 1
  store i64 %88, ptr %86, align 8, !tbaa !9
  %89 = getelementptr inbounds nuw %"class.rocksdb::CompactOnDeletionCollector", ptr %15, i32 0, i32 5
  %90 = load i64, ptr %89, align 8, !tbaa !21
  %91 = getelementptr inbounds nuw %"class.rocksdb::CompactOnDeletionCollector", ptr %15, i32 0, i32 6
  %92 = load i64, ptr %91, align 8, !tbaa !22
  %93 = icmp uge i64 %90, %92
  br i1 %93, label %94, label %96

94:                                               ; preds = %79
  %95 = getelementptr inbounds nuw %"class.rocksdb::CompactOnDeletionCollector", ptr %15, i32 0, i32 12
  store i8 1, ptr %95, align 8, !tbaa !27
  br label %96

96:                                               ; preds = %94, %79
  br label %97

97:                                               ; preds = %96, %73
  br label %98

98:                                               ; preds = %97, %44
  call void @_ZN7rocksdb6Status2OKEv(ptr dead_on_unwind writable sret(%"class.rocksdb::Status") align 8 %0)
  br label %99

99:                                               ; preds = %98, %28, %23
  ret void
}