; Function Attrs: mustprogress nofree norecurse nosync nounwind willreturn memory(argmem: readwrite) uwtable
define void @_ZN7rocksdb26CompactOnDeletionCollector10AddUserKeyERKNS_5SliceES3_NS_9EntryTypeEmm(ptr dead_on_unwind noalias writable writeonly sret(%"class.rocksdb::Status") align 8 captures(none) initializes((0, 6), (8, 16)) %0, ptr noundef nonnull align 8 captures(none) dereferenceable(1106) %1, ptr nonnull readnone align 8 captures(none) %2, ptr nonnull readnone align 8 captures(none) %3, i32 noundef %4, i64 %5, i64 %6) unnamed_addr #2 align 2 personality ptr @__gxx_personality_v0 {
  %8 = getelementptr inbounds nuw i8, ptr %1, i64 1032
  %9 = load i64, ptr %8, align 8, !tbaa !7
  %.not = icmp eq i64 %9, 0
  br i1 %.not, label %10, label %14

10:                                               ; preds = %7
  %11 = getelementptr inbounds nuw i8, ptr %1, i64 1080
  %12 = load i8, ptr %11, align 8, !tbaa !16, !range !17, !noundef !18
  %13 = trunc nuw i8 %12 to i1
  br i1 %13, label %14, label %65

14:                                               ; preds = %10, %7
  %15 = getelementptr inbounds nuw i8, ptr %1, i64 1104
  %16 = load i8, ptr %15, align 8, !tbaa !19, !range !17, !noundef !18
  %17 = trunc nuw i8 %16 to i1
  br i1 %17, label %65, label %18

18:                                               ; preds = %14
  %19 = getelementptr inbounds nuw i8, ptr %1, i64 1080
  %20 = load i8, ptr %19, align 8, !tbaa !16, !range !17, !noundef !18
  %21 = trunc nuw i8 %20 to i1
  br i1 %21, label %22, label %31

22:                                               ; preds = %18
  %23 = getelementptr inbounds nuw i8, ptr %1, i64 1088
  %24 = load i64, ptr %23, align 8, !tbaa !20
  %25 = add i64 %24, 1
  store i64 %25, ptr %23, align 8, !tbaa !20
  %26 = icmp eq i32 %4, 1
  br i1 %26, label %27, label %31

27:                                               ; preds = %22
  %28 = getelementptr inbounds nuw i8, ptr %1, i64 1096
  %29 = load i64, ptr %28, align 8, !tbaa !21
  %30 = add i64 %29, 1
  store i64 %30, ptr %28, align 8, !tbaa !21
  br label %31

31:                                               ; preds = %22, %27, %18
  br i1 %.not, label %65, label %32

32:                                               ; preds = %31
  %33 = getelementptr inbounds nuw i8, ptr %1, i64 1048
  %34 = load i64, ptr %33, align 8, !tbaa !22
  %35 = icmp eq i64 %34, %9
  br i1 %35, label %36, label %47

36:                                               ; preds = %32
  %37 = getelementptr inbounds nuw i8, ptr %1, i64 1040
  %38 = load i64, ptr %37, align 8, !tbaa !23
  %39 = add i64 %38, 1
  %40 = and i64 %39, 127
  store i64 %40, ptr %37, align 8, !tbaa !23
  %41 = getelementptr inbounds nuw i8, ptr %1, i64 8
  %42 = getelementptr inbounds nuw [128 x i64], ptr %41, i64 0, i64 %40
  %43 = load i64, ptr %42, align 8, !tbaa !24
  %44 = getelementptr inbounds nuw i8, ptr %1, i64 1056
  %45 = load i64, ptr %44, align 8, !tbaa !25
  %46 = sub i64 %45, %43
  store i64 %46, ptr %44, align 8, !tbaa !25
  store i64 0, ptr %42, align 8, !tbaa !24
  br label %47

47:                                               ; preds = %36, %32
  %48 = phi i64 [ 0, %36 ], [ %34, %32 ]
  %49 = add i64 %48, 1
  store i64 %49, ptr %33, align 8, !tbaa !22
  %50 = icmp eq i32 %4, 1
  br i1 %50, label %51, label %65

51:                                               ; preds = %47
  %52 = getelementptr inbounds nuw i8, ptr %1, i64 1056
  %53 = load i64, ptr %52, align 8, !tbaa !25
  %54 = add i64 %53, 1
  store i64 %54, ptr %52, align 8, !tbaa !25
  %55 = getelementptr inbounds nuw i8, ptr %1, i64 8
  %56 = getelementptr inbounds nuw i8, ptr %1, i64 1040
  %57 = load i64, ptr %56, align 8, !tbaa !23
  %58 = getelementptr inbounds nuw [128 x i64], ptr %55, i64 0, i64 %57
  %59 = load i64, ptr %58, align 8, !tbaa !24
  %60 = add i64 %59, 1
  store i64 %60, ptr %58, align 8, !tbaa !24
  %61 = load i64, ptr %52, align 8, !tbaa !25
  %62 = getelementptr inbounds nuw i8, ptr %1, i64 1064
  %63 = load i64, ptr %62, align 8, !tbaa !14
  %.not3 = icmp ult i64 %61, %63
  br i1 %.not3, label %65, label %64

64:                                               ; preds = %51
  store i8 1, ptr %15, align 8, !tbaa !19
  br label %65

65:                                               ; preds = %31, %51, %64, %47, %14, %10
  %66 = getelementptr inbounds nuw i8, ptr %0, i64 8
  store ptr null, ptr %66, align 8, !tbaa !26
  tail call void @llvm.memset.p0.i64(ptr noundef nonnull align 8 dereferenceable(16) %0, i8 0, i64 6, i1 false)
  ret void
}